target datalayout = "e-m:e-p270:32:32-p271:32:32-p272:64:64-i64:64-i128:128-f80:128-n8:16:32:64-S128"
target triple = "x86_64-pc-linux-gnu"

%struct.mq = type { ptr, i32, i32, ptr, ptr, i64, ptr, i64, ptr, i64, ptr, i8, ptr, ptr, [10 x %struct.mq_item] }
%struct.mq_item = type { i32, i64, i64 }
%struct.lbr_state = type { i64, %union.RepeatControl }
%union.RepeatControl = type { %struct.RepeatRingControl }
%struct.RepeatRingControl = type { i64, i16, i16 }
%struct.lbr_common = type { i32, i32 }

; Function Attrs: alwaysinline nounwind uwtable
define internal ptr @getRepeatInfo(ptr noundef %0) #2 {
  %2 = alloca ptr, align 8
  %3 = alloca ptr, align 8
  store ptr %0, ptr %2, align 8
  call void @llvm.lifetime.start.p0(i64 8, ptr %3) #8
  %4 = load ptr, ptr %2, align 8
  %5 = load ptr, ptr %2, align 8
  %6 = getelementptr inbounds nuw %struct.lbr_common, ptr %5, i32 0, i32 0
  %7 = load i32, ptr %6, align 4
  %8 = zext i32 %7 to i64
  %9 = getelementptr inbounds nuw i8, ptr %4, i64 %8
  store ptr %9, ptr %3, align 8
  %10 = load ptr, ptr %3, align 8
  call void @llvm.lifetime.end.p0(i64 8, ptr %3) #8
  ret ptr %10
}

; Function Attrs: alwaysinline nounwind uwtable
define internal void @lbrCompressState(ptr noundef %0, i64 noundef %1, ptr noundef %2, ptr noundef %3) #2 {
  %5 = alloca ptr, align 8
  %6 = alloca i64, align 8
  %7 = alloca ptr, align 8
  %8 = alloca ptr, align 8
  %9 = alloca ptr, align 8
  store ptr %0, ptr %5, align 8
  store i64 %1, ptr %6, align 8
  store ptr %2, ptr %7, align 8
  store ptr %3, ptr %8, align 8
  call void @llvm.lifetime.start.p0(i64 8, ptr %9) #8
  %10 = load ptr, ptr %5, align 8
  %11 = call ptr @getRepeatInfo(ptr noundef %10)
  store ptr %11, ptr %9, align 8
  %12 = load ptr, ptr %8, align 8
  %13 = load ptr, ptr %9, align 8
  %14 = load ptr, ptr %7, align 8
  %15 = getelementptr inbounds nuw %struct.lbr_state, ptr %14, i32 0, i32 1
  %16 = load i64, ptr %6, align 8
  call void @repeatPack(ptr noundef %12, ptr noundef %13, ptr noundef %15, i64 noundef %16)
  call void @llvm.lifetime.end.p0(i64 8, ptr %9) #8
  ret void
}

; Function Attrs: nounwind uwtable
define hidden signext i8 @nfaExecLbrShuf_queueCompressState(ptr noundef %0, ptr noundef %1, i64 noundef %2) #0 {
  %4 = alloca ptr, align 8
  %5 = alloca ptr, align 8
  %6 = alloca i64, align 8
  %7 = alloca ptr, align 8
  %8 = alloca ptr, align 8
  %9 = alloca i64, align 8
  store ptr %0, ptr %4, align 8
  store ptr %1, ptr %5, align 8
  store i64 %2, ptr %6, align 8
  br label %10

10:                                               ; preds = %3
  br label %11

11:                                               ; preds = %10
  call void @llvm.lifetime.start.p0(i64 8, ptr %7) #8
  %12 = load ptr, ptr %4, align 8
  %13 = getelementptr inbounds nuw i8, ptr %12, i64 64
  store ptr %13, ptr %7, align 8
  call void @llvm.lifetime.start.p0(i64 8, ptr %8) #8
  %14 = load ptr, ptr %5, align 8
  %15 = getelementptr inbounds nuw %struct.mq, ptr %14, i32 0, i32 3
  %16 = load ptr, ptr %15, align 8
  store ptr %16, ptr %8, align 8
  call void @llvm.lifetime.start.p0(i64 8, ptr %9) #8
  %17 = load ptr, ptr %5, align 8
  %18 = getelementptr inbounds nuw %struct.mq, ptr %17, i32 0, i32 5
  %19 = load i64, ptr %18, align 8
  %20 = load i64, ptr %6, align 8
  %21 = add i64 %19, %20
  store i64 %21, ptr %9, align 8
  %22 = load ptr, ptr %7, align 8
  %23 = load i64, ptr %9, align 8
  %24 = load ptr, ptr %8, align 8
  %25 = load ptr, ptr %5, align 8
  %26 = getelementptr inbounds nuw %struct.mq, ptr %25, i32 0, i32 4
  %27 = load ptr, ptr %26, align 8
  call void @lbrCompressState(ptr noundef %22, i64 noundef %23, ptr noundef %24, ptr noundef %27)
  call void @llvm.lifetime.end.p0(i64 8, ptr %9) #8
  call void @llvm.lifetime.end.p0(i64 8, ptr %8) #8
  call void @llvm.lifetime.end.p0(i64 8, ptr %7) #8
  ret i8 0
}